(dp0
Vengine
p1
Vxelatex
p2
sVpackages
p3
c__builtin__
set
p4
((lp5
Vkotex
p6
aVxunicode
p7
aVsectsty
p8
aVxcolor
p9
aVmarginnote
p10
aVhyperref
p11
aVgeometry
p12
aVfontspec
p13
aVulem
p14
atp15
Rp16
sVfiles_with_guttermarks
p17
g4
((lp18
V/Users/nyang/Documents/writings/_cv/namun_cv.tex
p19
aS'namun_cv.tex'
p20
aV/Users/j/Documents/writings/_cv/namun_cv.tex
p21
aV/Users/nyang/Documents/writings/_cv/./namun_cv.tex
p22
atp23
Rp24
sVsynctex
p25
I01
s.